; Function Attrs: mustprogress nounwind sspstrong willreturn uwtable
define hidden void @pm_node_list_free(ptr noundef captures(none) %0) local_unnamed_addr #1 {
  %2 = getelementptr inbounds nuw i8, ptr %0, i64 8
  %3 = load i64, ptr %2, align 8, !tbaa !14
  %.not = icmp eq i64 %3, 0
  br i1 %.not, label %7, label %4

4:                                                ; preds = %1
  %5 = getelementptr inbounds nuw i8, ptr %0, i64 16
  %6 = load ptr, ptr %5, align 8, !tbaa !15
  tail call void @free(ptr noundef %6) #9
  tail call void @llvm.memset.p0.i64(ptr noundef nonnull align 8 dereferenceable(24) %0, i8 0, i64 24, i1 false)
  br label %7

7:                                                ; preds = %4, %1
  ret void
}